(ipyUtils
Cuts
p0
(dp1
S'photon_pt_cut'
p2
F0.0
sS'str_cut'
p3
S''
p4
sS'photon_eta_cut'
p5
I1
sS'dz_cut'
p6
F0.10000000000000001
sS'varLabel'
p7
g4
sS'upsilon_pt_lcut'
p8
I7
sS'pi0_abs_mass_cut'
p9
F0.0
sS'upsilon_pt_hcut'
p10
I40
sS'muon_pt_cut'
p11
F2.5
sS'upsilon_rapidity_cut'
p12
F1.25
sS'muon_eta_cut'
p13
F2.2
sb.
