(ipyUtils
CB_parameters
p0
(dp1
S's_n1'
p2
F0.0
sS's_n2'
p3
F0.0
sS's_a1'
p4
F0.024962996779284541
sS's_a2'
p5
F0.049340867439561342
sS'a1'
p6
F0.76425629081315405
sS's_mean'
p7
F0.00017902527232926957
sS's_sigma'
p8
F0.00017737680920696915
sS'chiSquare'
p9
F0.68622898730482695
sS'n1'
p10
F2.7999999999999998
sS'n2'
p11
F3.0
sS'sigma'
p12
F0.0061242364623508962
sS'a2'
p13
F1.5960933797723587
sS'mean'
p14
F9.8887503617370101
sb.