(ipyUtils
CB_parameters
p0
(dp1
S's_n1'
p2
F0.0
sS's_n2'
p3
F0.0
sS's_a1'
p4
F0.055732005501842985
sS's_a2'
p5
F0.10955198011338485
sS'a1'
p6
F0.7618639923760113
sS's_mean'
p7
F0.0003611021889753374
sS's_sigma'
p8
F0.0004045609062056201
sS'chiSquare'
p9
F0.5205071994992588
sS'n1'
p10
F2.8
sS'n2'
p11
F3.0
sS'sigma'
p12
F0.005841673443098905
sS'a2'
p13
F1.5842708041153528
sS'mean'
p14
F9.889029882147433
sb.