(ipyUtils
CB_parameters
p0
(dp1
S's_n1'
p2
F0.0
sS's_n2'
p3
F0.0
sS's_a1'
p4
F0.07809125428736946
sS's_a2'
p5
F0.1870431275097929
sS'a1'
p6
F0.962952364067453
sS's_mean'
p7
F0.000429443410601138
sS's_sigma'
p8
F0.0006405755233889697
sS'chiSquare'
p9
F0.4859516312338729
sS'n1'
p10
F2.8
sS'n2'
p11
F3.0
sS'sigma'
p12
F0.007555090481126248
sS'a2'
p13
F1.6100379238187086
sS'mean'
p14
F9.909684773571344
sb.