(ipyUtils
CB_parameters
p0
(dp1
S's_n1'
p2
F0.0
sS's_n2'
p3
F0.0
sS's_a1'
p4
F0.04743725684902805
sS's_a2'
p5
F0.18609178268740223
sS'a1'
p6
F0.6030055433172472
sS's_mean'
p7
F0.00041811882066244976
sS's_sigma'
p8
F0.00043032180489689957
sS'chiSquare'
p9
F0.7982351938983283
sS'n1'
p10
F2.8
sS'n2'
p11
F3.0
sS'sigma'
p12
F0.005669422616709186
sS'a2'
p13
F1.8886054099871261
sS'mean'
p14
F9.908516549018746
sb.