(ipyUtils
NumChib
p0
(dp1
S'cov_NB'
p2
F-342.31612820357645
sS's_ratio_21'
p3
F0.07635960512314655
sS'numBkg'
p4
F1432.1599504420246
sS's_beta'
p5
F2.0839467357471464
sS'q0'
p6
F9.500026299670834
sS's_alpha'
p7
F3.2998886010064985
sS'numChib'
p8
F784.8321782507883
sS's_numChib1'
p9
F29.09785676343977
sS's_numChib2'
p10
F25.809678588732687
sS's_q0'
p11
F0.1650671223977982
sS'cov_NR'
p12
F0.0776076246170686
sS'beta'
p13
F-1.554433526891433
sS'chiSquare'
p14
F0.8794052387742151
sS's_numBkg'
p15
F40.49023675949525
sS'ratio_21'
p16
F0.6526298102077082
sS'alpha'
p17
F0.20000004773184868
sS'corr_NB'
p18
F-0.2583159058449781
sS's_numChib'
p19
F32.7284845544479
sS'numChib1'
p20
F474.8989600714923
sS'numChib2'
p21
F309.933218179296
sS'name'
p22
S'numChib_qValue_20_40'
p23
sb.