(ipyUtils
NumChib
p0
(dp1
S'cov_NB'
p2
F-544.8411125673458
sS's_ratio_21'
p3
F0.08537235554464401
sS'numBkg'
p4
F1423.6789282881496
sS's_beta'
p5
F1.736054470158626
sS'q0'
p6
F9.505116001710377
sS's_alpha'
p7
F1.9479633478748135
sS'numChib'
p8
F780.2468260255268
sS's_numChib1'
p9
F30.625525332930202
sS's_numChib2'
p10
F27.69708527581392
sS's_q0'
p11
F0.18965182654383295
sS'cov_NR'
p12
F0.09755072990290257
sS'beta'
p13
F-1.8364877279256033
sS'chiSquare'
p14
F0.7700251564794512
sS's_numBkg'
p15
F44.368666145261386
sS'ratio_21'
p16
F0.7122216071978484
sS'alpha'
p17
F0.2868462635011667
sS'corr_NB'
p18
F-0.33733714415628985
sS's_numChib'
p19
F36.40234274477626
sS'numChib1'
p20
F455.69266428219345
sS'numChib2'
p21
F324.5541617433334
sS'name'
p22
S'numChib_refit_20_40'
p23
sb.