(ipyUtils
NumChib
p0
(dp1
S'cov_NB'
p2
F-351.7586982728235
sS's_ratio_21'
p3
F0.08670373230821493
sS'numBkg'
p4
F1365.121007906811
sS's_beta'
p5
F0.16319919462011656
sS'q0'
p6
F9.5
sS's_alpha'
p7
F0.1360535971305162
sS'numChib'
p8
F554.9817156346004
sS's_numChib1'
p9
F26.557652520389645
sS's_numChib2'
p10
F22.31578396098324
sS's_q0'
p11
F0.0
sS'cov_NR'
p12
F0.06215796929118332
sS'beta'
p13
F-1.5792838636841111e-06
sS'chiSquare'
p14
F0.9952879959118637
sS's_numBkg'
p15
F41.43562418030683
sS'ratio_21'
p16
F0.58889450404151
sS'alpha'
p17
F0.20000129967956928
sS'corr_NB'
p18
F-0.2819006743308459
sS's_numChib'
p19
F30.11444372867652
sS'numChib1'
p20
F349.287957270259
sS'numChib2'
p21
F205.69375836434133
sS'name'
p22
S'numChib_qValue_16_20'
p23
sb.