(ipyUtils
NumChib
p0
(dp1
S'cov_NB'
p2
F-3584.8320581194107
sS's_ratio_21'
p3
F0.042914778399837206
sS'numBkg'
p4
F13560.222713301318
sS's_beta'
p5
F0.6599771585258827
sS'q0'
p6
F9.500000082530738
sS's_alpha'
p7
F0.4424053948875475
sS'numChib'
p8
F3145.5661449700524
sS's_numChib1'
p9
F70.20556960566992
sS's_numChib2'
p10
F63.126718241309355
sS's_q0'
p11
F0.18196530451915205
sS'cov_NR'
p12
F0.2953159090786783
sS'beta'
p13
F-1.7800836414327925
sS'chiSquare'
p14
F1.1943074469530839
sS's_numBkg'
p15
F130.28547018205427
sS'ratio_21'
p16
F0.6026682805698249
sS'alpha'
p17
F1.3598544950267002
sS'corr_NB'
p18
F-0.3355363015755109
sS's_numChib'
p19
F82.00367520355144
sS'numChib1'
p20
F1962.705684704544
sS'numChib2'
p21
F1182.8604602655082
sS'name'
p22
S'numChib_qValue'
p23
sb.