(ipyUtils
NumChib
p0
(dp1
S'cov_NB'
p2
F-325.83471276425803
sS's_ratio_21'
p3
F0.04509542601941985
sS'numBkg'
p4
F3696.0079181431156
sS's_beta'
p5
F0.15063834311824342
sS'q0'
p6
F9.5
sS's_alpha'
p7
F0.05564532486439133
sS'numChib'
p8
F1368.9388384558242
sS's_numChib1'
p9
F35.46691767069851
sS's_numChib2'
p10
F28.60966093991654
sS's_q0'
p11
F0.0
sS'cov_NR'
p12
F-0.010768776623609122
sS'beta'
p13
F-1.4645878918528865e-06
sS'chiSquare'
p14
F19.286844641724468
sS's_numBkg'
p15
F63.418539929584085
sS'ratio_21'
p16
F0.596894577331148
sS'alpha'
p17
F0.527706597516062
sS'corr_NB'
p18
F-0.1248009427324122
sS's_numChib'
p19
F41.16832949823686
sS'numChib1'
p20
F857.250602443462
sS'numChib2'
p21
F511.68823601236227
sS'name'
p22
S'numChib_refit_11_16'
p23
sb.