(ipyUtils
NumChib
p0
(dp1
S'cov_NB'
p2
F-1137.7665944342396
sS's_ratio_21'
p3
F0.07003995843428099
sS'numBkg'
p4
F4141.087293350326
sS's_beta'
p5
F1.1903373672435411
sS'q0'
p6
F9.500000032276269
sS's_alpha'
p7
F0.7716031674821165
sS'numChib'
p8
F1034.8744337465466
sS's_numChib1'
p9
F39.829273863996086
sS's_numChib2'
p10
F35.27096550601986
sS's_q0'
p11
F0.19020321814639463
sS'cov_NR'
p12
F0.30164048928700793
sS'beta'
p13
F-2.278778123411195
sS'chiSquare'
p14
F0.7919848086845669
sS's_numBkg'
p15
F72.30909580828597
sS'ratio_21'
p16
F0.569176145535001
sS'alpha'
p17
F1.4252523126969256
sS'corr_NB'
p18
F-0.33774955677903606
sS's_numChib'
p19
F46.5870767070719
sS'numChib1'
p20
F659.5017625594305
sS'numChib2'
p21
F375.37267118711605
sS'name'
p22
S'numChib_qValue_11_16'
p23
sb.