(ipyUtils
NumChib
p0
(dp1
S'cov_NB'
p2
F-563.3043929336371
sS's_ratio_21'
p3
F0.08450730919025029
sS'numBkg'
p4
F1428.1557565541336
sS's_beta'
p5
F1.8343750829642649
sS'q0'
p6
F9.503395695961242
sS's_alpha'
p7
F1.7991309745122699
sS'numChib'
p8
F780.8366841774939
sS's_numChib1'
p9
F30.82162022492477
sS's_numChib2'
p10
F27.703524125709038
sS's_q0'
p11
F0.18744117636907554
sS'cov_NR'
p12
F0.09554273218352388
sS'beta'
p13
F-1.9338639818683818
sS'chiSquare'
p14
F0.7763781716664627
sS's_numBkg'
p15
F44.626206144035564
sS'ratio_21'
p16
F0.7035757521175943
sS'alpha'
p17
F0.3270744633960449
sS'corr_NB'
p18
F-0.3442825835536157
sS's_numChib'
p19
F36.663854226662295
sS'numChib1'
p20
F458.3516073217708
sS'numChib2'
p21
F322.4850768557231
sS'name'
p22
S'numChib_refit_20_40'
p23
sb.