(ipyUtils
NumChib
p0
(dp1
S'cov_NB'
p2
F-3569.1691670628325
sS's_ratio_21'
p3
F0.04306031090599588
sS'numBkg'
p4
F13466.930088076535
sS's_beta'
p5
F0.6688588733184582
sS'q0'
p6
F9.500000000012333
sS's_alpha'
p7
F0.4488184715296598
sS'numChib'
p8
F3062.9780719393375
sS's_numChib1'
p9
F68.62139961085933
sS's_numChib2'
p10
F61.709143850921656
sS's_q0'
p11
F0.15115625758785445
sS'cov_NR'
p12
F0.29829924172730227
sS'beta'
p13
F-3.4194826900363076
sS'chiSquare'
p14
F1.2236039776707737
sS's_numBkg'
p15
F129.86997631576105
sS'ratio_21'
p16
F0.6098869270258198
sS'alpha'
p17
F1.959226700724748
sS'corr_NB'
p18
F-0.3375899590948168
sS's_numChib'
p19
F81.40833084810674
sS'numChib1'
p20
F1902.6044752087191
sS'numChib2'
p21
F1160.3735967306184
sS'name'
p22
S'numChib_refit'
p23
sb.