(ipyUtils
NumChib
p0
(dp1
S'cov_NB'
p2
F-4210.118419432407
sS's_ratio_21'
p3
F0.04370762662908251
sS'numBkg'
p4
F13176.275743775574
sS's_beta'
p5
F0.6416580231462135
sS'q0'
p6
F9.5
sS's_alpha'
p7
F0.24688870039910915
sS'numChib'
p8
F3125.765336321024
sS's_numChib1'
p9
F71.01400369320666
sS's_numChib2'
p10
F64.51155268128431
sS's_q0'
p11
F0.0
sS'cov_NR'
p12
F0.36891968970082806
sS'beta'
p13
F-1.793061207689072
sS'chiSquare'
p14
F1.2400158348835202
sS's_numBkg'
p15
F131.8573574048687
sS'ratio_21'
p16
F0.6113309449315557
sS'alpha'
p17
F1.3499268121993313
sS'corr_NB'
p18
F-0.37278556972344273
sS's_numChib'
p19
F85.65068707133423
sS'numChib1'
p20
F1939.865516859292
sS'numChib2'
p21
F1185.8998194617318
sS'name'
p22
S'numChib_qValue'
p23
sb.