(ipyUtils
NumChib
p0
(dp1
S'cov_NB'
p2
F-1819.119715923509
sS's_ratio_21'
p3
F0.10763672510073552
sS'numBkg'
p4
F6627.624259880921
sS's_beta'
p5
F0.9688447964199944
sS'q0'
p6
F9.60544936979534
sS's_alpha'
p7
F0.4765782983248006
sS'numChib'
p8
F750.4069833491944
sS's_numChib1'
p9
F40.761197248689676
sS's_numChib2'
p10
F38.0954834709859
sS's_q0'
p11
F0.0408786096924052
sS'cov_NR'
p12
F0.6594748415029845
sS'beta'
p13
F-2.1680010352021153
sS'chiSquare'
p14
F0.9694716056376407
sS's_numBkg'
p15
F91.78998270071997
sS'ratio_21'
p16
F0.630696955784474
sS'alpha'
p17
F1.394309434244532
sS'corr_NB'
p18
F-0.39080124281141143
sS's_numChib'
p19
F50.71192035144554
sS'numChib1'
p20
F460.1756204224951
sS'numChib2'
p21
F290.2313629266993
sS'name'
p22
S'numChib_qValue_7_11'
p23
sb.