(ipyUtils
NumChib
p0
(dp1
S'cov_NB'
p2
F-90.77390394090841
sS's_ratio_21'
p3
F0.2754878992258176
sS'numBkg'
p4
F890.5627073164807
sS's_beta'
p5
F0.025066325961257796
sS'q0'
p6
F9.5
sS's_alpha'
p7
F0.010134843469530974
sS'numChib'
p8
F87.45061595613612
sS's_numChib1'
p9
F9.511143685661432
sS's_numChib2'
p10
F10.209367409972698
sS's_q0'
p11
F0.0
sS'cov_NR'
p12
F0.6073277771210542
sS'beta'
p13
F-4.0121950206639667e-10
sS'chiSquare'
p14
F0.7878006721948156
sS's_numBkg'
p15
F31.325459451092513
sS'ratio_21'
p16
F0.8108813551616367
sS'alpha'
p17
F3.499999922202174
sS'corr_NB'
p18
F-0.2170032648688719
sS's_numChib'
p19
F13.353567197196824
sS'numChib1'
p20
F48.29174241971827
sS'numChib2'
p21
F39.15887353641786
sS'name'
p22
S'numChib_qValue_7_11'
p23
sb.