(ipyUtils
NumChib
p0
(dp1
S'cov_NB'
p2
F-352.35675481212235
sS's_ratio_21'
p3
F0.08709768676642493
sS'numBkg'
p4
F1365.5375787445578
sS's_beta'
p5
F0.6530313752451438
sS'q0'
p6
F9.5
sS's_alpha'
p7
F0.21798935406438713
sS'numChib'
p8
F554.4529595474801
sS's_numChib1'
p9
F26.470091381846377
sS's_numChib2'
p10
F22.34026140405188
sS's_q0'
p11
F0.0
sS'cov_NR'
p12
F0.06904575227800629
sS'beta'
p13
F-2.0979008743537975e-06
sS'chiSquare'
p14
F0.9958431144923123
sS's_numBkg'
p15
F41.44774858998028
sS'ratio_21'
p16
F0.5929359625468089
sS'alpha'
p17
F0.1707215360757628
sS'corr_NB'
p18
F-0.28229393750908
sS's_numChib'
p19
F30.114808448727956
sS'numChib1'
p20
F348.06983619166505
sS'numChib2'
p21
F206.38312335581503
sS'name'
p22
S'numChib_qValue_16_20'
p23
sb.