(ipyUtils
NumChib
p0
(dp1
S'cov_NB'
p2
F-355.0034813279666
sS's_ratio_21'
p3
F0.08274257936465554
sS'numBkg'
p4
F1354.789295719322
sS's_beta'
p5
F5.995708400431999
sS'q0'
p6
F9.500000005258915
sS's_alpha'
p7
F0.5648671935593178
sS'numChib'
p8
F554.2589711939494
sS's_numChib1'
p9
F26.262856222038028
sS's_numChib2'
p10
F21.72447091732892
sS's_q0'
p11
F0.19275120146643676
sS'cov_NR'
p12
F0.05971893676839028
sS'beta'
p13
F-0.0352286214730535
sS'chiSquare'
p14
F0.6993334571922674
sS's_numBkg'
p15
F41.34967425048069
sS'ratio_21'
p16
F0.5763082648277176
sS'alpha'
p17
F0.2000744743272866
sS'corr_NB'
p18
F-0.28470169931912825
sS's_numChib'
p19
F30.155772623616258
sS'numChib1'
p20
F351.6183880787601
sS'numChib2'
p21
F202.64058311518926
sS'name'
p22
S'numChib_refit_16_20'
p23
sb.