(ipyUtils
NumChib
p0
(dp1
S'cov_NB'
p2
F-4211.311524483119
sS's_ratio_21'
p3
F0.043670667697643495
sS'numBkg'
p4
F13176.015827199266
sS's_beta'
p5
F0.6434512413677194
sS'q0'
p6
F9.5
sS's_alpha'
p7
F0.2470713207438775
sS'numChib'
p8
F3125.980242275722
sS's_numChib1'
p9
F71.03241288260247
sS's_numChib2'
p10
F64.51116262113497
sS's_q0'
p11
F0.0
sS'cov_NR'
p12
F0.3693588341965327
sS'beta'
p13
F-1.7915529359407616
sS'chiSquare'
p14
F1.2390021828945925
sS's_numBkg'
p15
F131.8603133790375
sS'ratio_21'
p16
F0.6105796778020128
sS'alpha'
p17
F1.3492416047986426
sS'corr_NB'
p18
F-0.37284435214469036
sS's_numChib'
p19
F85.65953183476131
sS'numChib1'
p20
F1940.903815787496
sS'numChib2'
p21
F1185.0764264882264
sS'name'
p22
S'numChib_qValue'
p23
sb.