(ipyUtils
NumChib
p0
(dp1
S'cov_NB'
p2
F-3624.8603885417438
sS's_ratio_21'
p3
F0.04331160310761656
sS'numBkg'
p4
F13568.662864104945
sS's_beta'
p5
F0.6889797240505389
sS'q0'
p6
F9.500000043452323
sS's_alpha'
p7
F0.44703299532574636
sS'numChib'
p8
F3064.4063485648967
sS's_numChib1'
p9
F68.7840841255966
sS's_numChib2'
p10
F61.96030506318797
sS's_q0'
p11
F0.14769303831269465
sS'cov_NR'
p12
F0.30237001488462156
sS'beta'
p13
F-3.405655235602498
sS'chiSquare'
p14
F1.1936989220712022
sS's_numBkg'
p15
F130.5293091777712
sS'ratio_21'
p16
F0.6128889007093111
sS'alpha'
p17
F1.9593369447905598
sS'corr_NB'
p18
F-0.33964351273436627
sS's_numChib'
p19
F81.76358419343387
sS'numChib1'
p20
F1899.948810620026
sS'numChib2'
p21
F1164.4575379448706
sS'name'
p22
S'numChib_refit'
p23
sb.