(ipyUtils
NumChib
p0
(dp1
S'cov_NB'
p2
F-4186.000932938025
sS's_ratio_21'
p3
F0.043988209468377615
sS'numBkg'
p4
F13185.62702089211
sS's_beta'
p5
F0.6433412236703218
sS'q0'
p6
F9.5
sS's_alpha'
p7
F0.24717431413171265
sS'numChib'
p8
F3051.040861975346
sS's_numChib1'
p9
F69.689843194779
sS's_numChib2'
p10
F63.20515403632713
sS's_q0'
p11
F0.0
sS'cov_NR'
p12
F0.3594293434887601
sS'beta'
p13
F-3.370552905158827
sS'chiSquare'
p14
F1.1940268364999453
sS's_numBkg'
p15
F131.80202864995226
sS'ratio_21'
p16
F0.6200921658847613
sS'alpha'
p17
F1.9327278046697631
sS'corr_NB'
p18
F-0.3732959102871148
sS's_numChib'
p19
F85.079316844505
sS'numChib1'
p20
F1883.2514138534323
sS'numChib2'
p21
F1167.789448121914
sS'name'
p22
S'numChib_refit'
p23
sb.