(ipyUtils
NumChib
p0
(dp1
S'cov_NB'
p2
F-87.7172535129616
sS's_ratio_21'
p3
F0.2644356481704011
sS'numBkg'
p4
F883.0277108410083
sS's_beta'
p5
F0.026915529588970255
sS'q0'
p6
F9.5
sS's_alpha'
p7
F0.010735969925229405
sS'numChib'
p8
F87.98712559967004
sS's_numChib1'
p9
F9.33393757517537
sS's_numChib2'
p10
F9.998105305237427
sS's_q0'
p11
F0.0
sS'cov_NR'
p12
F0.5867715553840492
sS'beta'
p13
F-1.8997444506396732e-08
sS'chiSquare'
p14
F0.768268219092593
sS's_numBkg'
p15
F31.156535171027144
sS'ratio_21'
p16
F0.8068417620369411
sS'alpha'
p17
F3.4999999180006576
sS'corr_NB'
p18
F-0.21236536041088389
sS's_numChib'
p19
F13.257211689218785
sS'numChib1'
p20
F48.69664153682049
sS'numChib2'
p21
F39.29048406284954
sS'name'
p22
S'numChib_refit_7_11'
p23
sb.