(ipyUtils
NumChib
p0
(dp1
S'cov_NB'
p2
F-1831.462654478282
sS's_ratio_21'
p3
F0.10741681707905659
sS'numBkg'
p4
F6369.413220642139
sS's_beta'
p5
F1.630048507047714
sS'q0'
p6
F9.510539952101004
sS's_alpha'
p7
F0.9754043815185367
sS'numChib'
p8
F726.5412458134946
sS's_numChib1'
p9
F39.79499155092633
sS's_numChib2'
p10
F37.90103787026216
sS's_q0'
p11
F0.11525527850547057
sS'cov_NR'
p12
F0.8231515777672168
sS'beta'
p13
F-4.7560640930209175
sS'chiSquare'
p14
F0.9554046311794657
sS's_numBkg'
p15
F90.55840696558244
sS'ratio_21'
p16
F0.6179483849590537
sS'alpha'
p17
F2.887284995696302
sS'corr_NB'
p18
F-0.39985557961278634
sS's_numChib'
p19
F50.578521808874996
sS'numChib1'
p20
F449.050941654039
sS'numChib2'
p21
F277.4903041594556
sS'name'
p22
S'numChib_qValue_7_11'
p23
sb.