(ipyUtils
NumChib
p0
(dp1
S'cov_NB'
p2
F-1192.746688248997
sS's_ratio_21'
p3
F0.04614696928196138
sS'numBkg'
p4
F3481.4967142315663
sS's_beta'
p5
F1.3567396849305415
sS'q0'
p6
F9.5
sS's_alpha'
p7
F0.5483006205573691
sS'numChib'
p8
F1969.6579867671649
sS's_numChib1'
p9
F47.65365986455107
sS's_numChib2'
p10
F42.42736057112924
sS's_q0'
p11
F0.0
sS'cov_NR'
p12
F0.19643978003122956
sS'beta'
p13
F-2.174807262582438
sS'chiSquare'
p14
F1.0118519469831884
sS's_numBkg'
p15
F68.36987945753731
sS'ratio_21'
p16
F0.6084421440996216
sS'alpha'
p17
F2.8907223377025355
sS'corr_NB'
p18
F-0.31021282614412576
sS's_numChib'
p19
F56.23719552736998
sS'numChib1'
p20
F1224.5749677677998
sS'numChib2'
p21
F745.0830189993651
sS'name'
p22
S'numChib_qValue'
p23
sb.