(ipyUtils
NumChib
p0
(dp1
S'cov_NB'
p2
F-552.1265694812321
sS's_ratio_21'
p3
F0.08107367589182468
sS'numBkg'
p4
F1421.9174907831589
sS's_beta'
p5
F5.042458987090964
sS'q0'
p6
F9.5
sS's_alpha'
p7
F0.6833542155541459
sS'numChib'
p8
F790.0121239853563
sS's_numChib1'
p9
F31.424361386487053
sS's_numChib2'
p10
F27.817203865866933
sS's_q0'
p11
F0.0
sS'cov_NR'
p12
F0.1031041712812759
sS'beta'
p13
F-0.5007177784246775
sS'chiSquare'
p14
F0.877207330057557
sS's_numBkg'
p15
F44.430916103686855
sS'ratio_21'
p16
F0.6623200072370099
sS'alpha'
p17
F-0.19586199348489508
sS'corr_NB'
p18
F-0.33919396641914124
sS's_numChib'
p19
F36.63576465563199
sS'numChib1'
p20
F475.24671576230276
sS'numChib2'
p21
F314.7654082230536
sS'name'
p22
S'numChib_qValue_20_40'
p23
sb.