(ipyUtils
NumChib
p0
(dp1
S'cov_NB'
p2
F-348.3416241173485
sS's_ratio_21'
p3
F0.08308530059344374
sS'numBkg'
p4
F1354.659018989307
sS's_beta'
p5
F1.006608312264912
sS'q0'
p6
F9.5
sS's_alpha'
p7
F0.26197770158145806
sS'numChib'
p8
F554.3764779946114
sS's_numChib1'
p9
F26.210869931271894
sS's_numChib2'
p10
F21.73711387260622
sS's_q0'
p11
F0.0
sS'cov_NR'
p12
F0.05929902255668292
sS'beta'
p13
F-2.6496251501306745e-05
sS'chiSquare'
p14
F0.6997600704519045
sS's_numBkg'
p15
F41.26805712443149
sS'ratio_21'
p16
F0.5787551761997372
sS'alpha'
p17
F0.17983551788911445
sS'corr_NB'
p18
F-0.2809281401758138
sS's_numChib'
p19
F30.046653264156873
sS'numChib1'
p20
F351.14784505667654
sS'numChib2'
p21
F203.22863293793486
sS'name'
p22
S'numChib_refit_16_20'
p23
sb.