(ipyUtils
NumChib
p0
(dp1
S'cov_NB'
p2
F-306.05642105226576
sS's_ratio_21'
p3
F0.07373055424772029
sS'numBkg'
p4
F1064.2587183356338
sS's_beta'
p5
F0.3832953253708449
sS'q0'
p6
F9.5
sS's_alpha'
p7
F0.08380203871129766
sS'numChib'
p8
F730.7078796211952
sS's_numChib1'
p9
F27.27236482357937
sS's_numChib2'
p10
F24.45425812334538
sS's_q0'
p11
F0.0
sS'cov_NR'
p12
F0.1594974744354736
sS'beta'
p13
F-1.5991761746698696
sS'chiSquare'
p14
F1.0465000387932855
sS's_numBkg'
p15
F37.01755889317508
sS'ratio_21'
p16
F0.6327629689154716
sS'alpha'
p17
F3.4999998884743695
sS'corr_NB'
p18
F-0.2567651864844035
sS's_numChib'
p19
F32.20012664867102
sS'numChib1'
p20
F447.52844934164114
sS'numChib2'
p21
F283.179430279554
sS'name'
p22
S'numChib_refit_11_16'
p23
sb.