(ipyUtils
Sistematici
p0
(dp1
S'polar_hx'
p2
(F-0.05272488887096427
F0.04086024408711775
tp3
sS'dscbParam'
p4
F0.03513020833645895
sS'ptDistro'
p5
F0.026654592568030912
sS'value'
p6
F0.5466131247792108
sS'ratioEff'
p7
F0.04474842869634736
sS'funzParam'
p8
F0.15282594699208077
sS'polar_cs'
p9
(F-0.028898738494037013
F0.030911833251850096
tp10
sS'statistic'
p11
F0.12291241620143745
sb.