(ipyUtils
Sistematici
p0
(dp1
S'polar_hx'
p2
(F-0.03276951158388308
F0.013264671166898667
tp3
sS'dscbParam'
p4
F0.052748401979358914
sS'ptDistro'
p5
F0.0205189012861709
sS'value'
p6
F0.5787551761997372
sS'ratioEff'
p7
F0.06005137221196544
sS'funzParam'
p8
F0.05390534352390887
sS'polar_cs'
p9
(F-0.035331737429281085
F0.03507118858685376
tp10
sS'statistic'
p11
F0.14355863067869953
sb.