(ipyUtils
Sistematici
p0
(dp1
S'polar_hx'
p2
(F-0.05272488887096427
F0.04086024408711775
tp3
sS'dscbParam'
p4
F0.04630380739305183
sS'ptDistro'
p5
F0.03189078239136096
sS'value'
p6
F0.5458473008805667
sS'ratioEff'
p7
F0.04474842869634736
sS'funzParam'
p8
F0.15329922661495674
sS'polar_cs'
p9
(F-0.028898738494037013
F0.030911833251850096
tp10
sS'statistic'
p11
F0.12372179895150094
sb.