(ipyUtils
Sistematici
p0
(dp1
S'polar_hx'
p2
(F-0.03837428857143177
F0.047428174028428804
tp3
sS'dscbParam'
p4
F0.05693840208698544
sS'ptDistro'
p5
F0.00295708871382357
sS'value'
p6
F0.5361655677512662
sS'ratioEff'
p7
F0.0657272912366955
sS'funzParam'
p8
F0.026983895363651495
sS'polar_cs'
p9
(F-0.026487801307691905
F0.03232906735026675
tp10
sS'statistic'
p11
F0.14166959639792848
sb.